target datalayout = "e-m:e-p270:32:32-p271:32:32-p272:64:64-i64:64-i128:128-f80:128-n8:16:32:64-S128"
target triple = "x86_64-pc-linux-gnu"

%struct.ll_merge_options = type { i8, i32, i32, i64 }

; Function Attrs: nounwind uwtable
define internal i32 @ll_union_merge(ptr noundef %0, ptr noundef %1, ptr noundef %2, ptr noundef %3, ptr noundef %4, ptr noundef %5, ptr noundef %6, ptr noundef %7, ptr noundef %8, ptr noundef %9, i32 noundef %10) #0 {
  %12 = alloca ptr, align 8
  %13 = alloca ptr, align 8
  %14 = alloca ptr, align 8
  %15 = alloca ptr, align 8
  %16 = alloca ptr, align 8
  %17 = alloca ptr, align 8
  %18 = alloca ptr, align 8
  %19 = alloca ptr, align 8
  %20 = alloca ptr, align 8
  %21 = alloca ptr, align 8
  %22 = alloca i32, align 4
  %23 = alloca %struct.ll_merge_options, align 8
  store ptr %0, ptr %12, align 8, !tbaa !29
  store ptr %1, ptr %13, align 8, !tbaa !9
  store ptr %2, ptr %14, align 8, !tbaa !11
  store ptr %3, ptr %15, align 8, !tbaa !13
  store ptr %4, ptr %16, align 8, !tbaa !11
  store ptr %5, ptr %17, align 8, !tbaa !13
  store ptr %6, ptr %18, align 8, !tbaa !11
  store ptr %7, ptr %19, align 8, !tbaa !13
  store ptr %8, ptr %20, align 8, !tbaa !11
  store ptr %9, ptr %21, align 8, !tbaa !17
  store i32 %10, ptr %22, align 4, !tbaa !19
  call void @llvm.lifetime.start.p0(i64 24, ptr %23) #10
  %24 = load ptr, ptr %21, align 8, !tbaa !17
  call void @llvm.memcpy.p0.p0.i64(ptr align 8 %23, ptr align 8 %24, i64 24, i1 false), !tbaa.struct !88
  %25 = load i8, ptr %23, align 8
  %26 = and i8 %25, -7
  %27 = or i8 %26, 6
  store i8 %27, ptr %23, align 8
  %28 = load ptr, ptr %12, align 8, !tbaa !29
  %29 = load ptr, ptr %13, align 8, !tbaa !9
  %30 = load ptr, ptr %14, align 8, !tbaa !11
  %31 = load ptr, ptr %15, align 8, !tbaa !13
  %32 = load ptr, ptr %16, align 8, !tbaa !11
  %33 = load ptr, ptr %17, align 8, !tbaa !13
  %34 = load ptr, ptr %18, align 8, !tbaa !11
  %35 = load ptr, ptr %19, align 8, !tbaa !13
  %36 = load ptr, ptr %20, align 8, !tbaa !11
  %37 = load i32, ptr %22, align 4, !tbaa !19
  %38 = call i32 @ll_xdl_merge(ptr noundef %28, ptr noundef %29, ptr noundef %30, ptr noundef %31, ptr noundef %32, ptr noundef %33, ptr noundef %34, ptr noundef %35, ptr noundef %36, ptr noundef %23, i32 noundef %37)
  call void @llvm.lifetime.end.p0(i64 24, ptr %23) #10
  ret i32 %38
}