; Function Attrs: nounwind uwtable
define internal range(i32 -2147483648, 3) i32 @ll_union_merge(ptr readnone captures(none) %0, ptr noundef %1, ptr readnone captures(none) %2, ptr noundef %3, ptr noundef %4, ptr noundef %5, ptr noundef %6, ptr noundef %7, ptr noundef %8, ptr noundef readonly captures(none) %9, i32 noundef %10) #0 {
  %12 = alloca %struct.ll_merge_options, align 8
  call void @llvm.lifetime.start.p0(i64 24, ptr nonnull %12) #15
  call void @llvm.memcpy.p0.p0.i64(ptr noundef nonnull align 8 dereferenceable(24) %12, ptr noundef nonnull align 8 dereferenceable(24) %9, i64 24, i1 false), !tbaa.struct !71
  %13 = load i8, ptr %12, align 8
  %14 = or i8 %13, 6
  store i8 %14, ptr %12, align 8
  %15 = call i32 @ll_xdl_merge(ptr poison, ptr noundef %1, ptr poison, ptr noundef %3, ptr noundef %4, ptr noundef %5, ptr noundef %6, ptr noundef %7, ptr noundef %8, ptr noundef nonnull %12, i32 noundef %10)
  call void @llvm.lifetime.end.p0(i64 24, ptr nonnull %12) #15
  ret i32 %15
}